; Function Attrs: nounwind uwtable
define range(i32 0, 2) i32 @ERR_pop() local_unnamed_addr #0 {
  %1 = tail call ptr @ossl_err_get_state_int() #2
  %2 = icmp eq ptr %1, null
  br i1 %2, label %39, label %3

3:                                                ; preds = %0
  %4 = getelementptr inbounds nuw i8, ptr %1, i64 900
  %5 = load i32, ptr %4, align 4, !tbaa !3
  %6 = getelementptr inbounds nuw i8, ptr %1, i64 896
  %7 = load i32, ptr %6, align 8, !tbaa !8
  %8 = icmp eq i32 %5, %7
  br i1 %8, label %39, label %9

9:                                                ; preds = %3
  %10 = sext i32 %7 to i64
  %11 = getelementptr inbounds nuw i8, ptr %1, i64 512
  %12 = getelementptr inbounds nuw [16 x i32], ptr %11, i64 0, i64 %10
  %13 = load i32, ptr %12, align 4, !tbaa !9
  %14 = and i32 %13, 1
  %.not.i.i = icmp eq i32 %14, 0
  %15 = getelementptr inbounds nuw i8, ptr %1, i64 256
  %16 = getelementptr inbounds nuw [16 x ptr], ptr %15, i64 0, i64 %10
  br i1 %.not.i.i, label %20, label %17

17:                                               ; preds = %9
  %18 = load ptr, ptr %16, align 8, !tbaa !10
  %.not22.i.i = icmp eq ptr %18, null
  br i1 %.not22.i.i, label %err_clear.exit, label %19

19:                                               ; preds = %17
  store i8 0, ptr %18, align 1, !tbaa !13
  br label %.sink.split.i.i

20:                                               ; preds = %9
  store ptr null, ptr %16, align 8, !tbaa !10
  %21 = getelementptr inbounds nuw i8, ptr %1, i64 384
  %22 = getelementptr inbounds nuw [16 x i64], ptr %21, i64 0, i64 %10
  store i64 0, ptr %22, align 8, !tbaa !14
  br label %.sink.split.i.i

.sink.split.i.i:                                  ; preds = %20, %19
  %.sink.i.i = phi i32 [ 1, %19 ], [ 0, %20 ]
  store i32 %.sink.i.i, ptr %12, align 4, !tbaa !9
  br label %err_clear.exit

err_clear.exit:                                   ; preds = %17, %.sink.split.i.i
  %23 = getelementptr inbounds nuw i8, ptr %1, i64 64
  %24 = getelementptr inbounds nuw [16 x i32], ptr %23, i64 0, i64 %10
  store i32 0, ptr %24, align 4, !tbaa !9
  %25 = getelementptr inbounds nuw [16 x i32], ptr %1, i64 0, i64 %10
  store i32 0, ptr %25, align 4, !tbaa !9
  %26 = getelementptr inbounds nuw i8, ptr %1, i64 128
  %27 = getelementptr inbounds nuw [16 x i64], ptr %26, i64 0, i64 %10
  store i64 0, ptr %27, align 8, !tbaa !14
  %28 = getelementptr inbounds nuw i8, ptr %1, i64 704
  %29 = getelementptr inbounds nuw [16 x i32], ptr %28, i64 0, i64 %10
  store i32 -1, ptr %29, align 4, !tbaa !9
  %30 = getelementptr inbounds nuw i8, ptr %1, i64 576
  %31 = getelementptr inbounds nuw [16 x ptr], ptr %30, i64 0, i64 %10
  %32 = load ptr, ptr %31, align 8, !tbaa !10
  tail call void @CRYPTO_free(ptr noundef %32, ptr noundef nonnull @.str, i32 noundef 91) #2
  store ptr null, ptr %31, align 8, !tbaa !10
  %33 = getelementptr inbounds nuw i8, ptr %1, i64 768
  %34 = getelementptr inbounds nuw [16 x ptr], ptr %33, i64 0, i64 %10
  %35 = load ptr, ptr %34, align 8, !tbaa !10
  tail call void @CRYPTO_free(ptr noundef %35, ptr noundef nonnull @.str, i32 noundef 93) #2
  store ptr null, ptr %34, align 8, !tbaa !10
  %36 = load i32, ptr %6, align 8, !tbaa !8
  %37 = icmp sgt i32 %36, 0
  %38 = add nsw i32 %36, -1
  %spec.select = select i1 %37, i32 %38, i32 15
  store i32 %spec.select, ptr %6, align 8, !tbaa !8
  br label %39

39:                                               ; preds = %0, %3, %err_clear.exit
  %.0 = phi i32 [ 1, %err_clear.exit ], [ 0, %3 ], [ 0, %0 ]
  ret i32 %.0
}